target datalayout = "e-m:e-p270:32:32-p271:32:32-p272:64:64-i64:64-i128:128-f80:128-n8:16:32:64-S128"
target triple = "x86_64-pc-linux-gnu"

%struct.DecoderCodingBlock = type { %struct.macroblockd, i32, [2 x ptr], [3 x ptr], [3 x i16], [3 x ptr], [3 x i16], [29 x i8], [29 x i8] }
%struct.macroblockd = type { i32, i32, i32, i8, [3 x %struct.macroblockd_plane], %struct.TileInfo, ptr, i8, i8, i8, i8, ptr, ptr, ptr, ptr, ptr, i32, i32, i32, i32, i32, [2 x ptr], ptr, [3 x ptr], [3 x [32 x i8]], ptr, [32 x i8], ptr, ptr, [32 x i8], [3 x %struct.WienerInfo], [3 x %struct.SgrprojInfo], i8, i8, [29 x [8 x %struct.candidate_mv]], [29 x [8 x i16]], i8, i8, [8 x i8], ptr, i32, [8 x i32], [8 x i32], i32, i32, ptr, ptr, i8, [4 x i8], [4 x i8], [7 x i8], [32768 x i8], %struct.cfl_ctx, [2 x i16], ptr, [2 x ptr] }
%struct.macroblockd_plane = type { i8, i32, i32, %struct.buf_2d, [2 x %struct.buf_2d], ptr, ptr, [8 x [2 x i16]], ptr, i8, i8, [8 x [19 x ptr]], [8 x [19 x ptr]] }
%struct.buf_2d = type { ptr, ptr, i32, i32, i32 }
%struct.TileInfo = type { i32, i32, i32, i32, i32, i32 }
%struct.WienerInfo = type { [8 x i16], [8 x i16] }
%struct.SgrprojInfo = type { i32, [2 x i32] }
%struct.candidate_mv = type { %union.int_mv, %union.int_mv }
%union.int_mv = type { i32 }
%struct.cfl_ctx = type { [1024 x i16], [1024 x i16], [2 x i32], i32, [2 x [32 x i16]], i32, i32, i32, i32, i32, i32 }
%struct.ThreadData = type { %struct.DecoderCodingBlock, %struct.CB_BUFFER, ptr, [2 x ptr], i32, i32, ptr, [2 x ptr], ptr, ptr, ptr, ptr, ptr, ptr, [24 x i8] }
%struct.CB_BUFFER = type { [3 x [16384 x i32]], [3 x [1024 x %struct.eob_info]], [2 x [16384 x i8]] }
%struct.eob_info = type { i16, i16 }

; Function Attrs: nounwind uwtable
define hidden void @av1_free_mc_tmp_buf(ptr noundef %0) #0 {
  %2 = alloca ptr, align 8
  %3 = alloca i32, align 4
  %4 = alloca i32, align 4
  store ptr %0, ptr %2, align 8
  store i32 0, ptr %3, align 4
  br label %5

5:                                                ; preds = %36, %1
  %6 = load i32, ptr %3, align 4
  %7 = icmp slt i32 %6, 2
  br i1 %7, label %8, label %39

8:                                                ; preds = %5
  %9 = load ptr, ptr %2, align 8
  %10 = getelementptr inbounds nuw %struct.ThreadData, ptr %9, i32 0, i32 5
  %11 = load i32, ptr %10, align 4
  %12 = icmp ne i32 %11, 0
  br i1 %12, label %13, label %23

13:                                               ; preds = %8
  %14 = load ptr, ptr %2, align 8
  %15 = getelementptr inbounds nuw %struct.ThreadData, ptr %14, i32 0, i32 3
  %16 = load i32, ptr %3, align 4
  %17 = sext i32 %16 to i64
  %18 = getelementptr inbounds [2 x ptr], ptr %15, i64 0, i64 %17
  %19 = load ptr, ptr %18, align 8
  %20 = ptrtoint ptr %19 to i64
  %21 = shl i64 %20, 1
  %22 = inttoptr i64 %21 to ptr
  call void @aom_free(ptr noundef %22)
  br label %30

23:                                               ; preds = %8
  %24 = load ptr, ptr %2, align 8
  %25 = getelementptr inbounds nuw %struct.ThreadData, ptr %24, i32 0, i32 3
  %26 = load i32, ptr %3, align 4
  %27 = sext i32 %26 to i64
  %28 = getelementptr inbounds [2 x ptr], ptr %25, i64 0, i64 %27
  %29 = load ptr, ptr %28, align 8
  call void @aom_free(ptr noundef %29)
  br label %30

30:                                               ; preds = %23, %13
  %31 = load ptr, ptr %2, align 8
  %32 = getelementptr inbounds nuw %struct.ThreadData, ptr %31, i32 0, i32 3
  %33 = load i32, ptr %3, align 4
  %34 = sext i32 %33 to i64
  %35 = getelementptr inbounds [2 x ptr], ptr %32, i64 0, i64 %34
  store ptr null, ptr %35, align 8
  br label %36

36:                                               ; preds = %30
  %37 = load i32, ptr %3, align 4
  %38 = add nsw i32 %37, 1
  store i32 %38, ptr %3, align 4
  br label %5, !llvm.loop !7

39:                                               ; preds = %5
  %40 = load ptr, ptr %2, align 8
  %41 = getelementptr inbounds nuw %struct.ThreadData, ptr %40, i32 0, i32 4
  store i32 0, ptr %41, align 8
  %42 = load ptr, ptr %2, align 8
  %43 = getelementptr inbounds nuw %struct.ThreadData, ptr %42, i32 0, i32 5
  store i32 0, ptr %43, align 4
  %44 = load ptr, ptr %2, align 8
  %45 = getelementptr inbounds nuw %struct.ThreadData, ptr %44, i32 0, i32 6
  %46 = load ptr, ptr %45, align 32
  call void @aom_free(ptr noundef %46)
  %47 = load ptr, ptr %2, align 8
  %48 = getelementptr inbounds nuw %struct.ThreadData, ptr %47, i32 0, i32 6
  store ptr null, ptr %48, align 32
  store i32 0, ptr %4, align 4
  br label %49

49:                                               ; preds = %64, %39
  %50 = load i32, ptr %4, align 4
  %51 = icmp slt i32 %50, 2
  br i1 %51, label %52, label %67

52:                                               ; preds = %49
  %53 = load ptr, ptr %2, align 8
  %54 = getelementptr inbounds nuw %struct.ThreadData, ptr %53, i32 0, i32 7
  %55 = load i32, ptr %4, align 4
  %56 = sext i32 %55 to i64
  %57 = getelementptr inbounds [2 x ptr], ptr %54, i64 0, i64 %56
  %58 = load ptr, ptr %57, align 8
  call void @aom_free(ptr noundef %58)
  %59 = load ptr, ptr %2, align 8
  %60 = getelementptr inbounds nuw %struct.ThreadData, ptr %59, i32 0, i32 7
  %61 = load i32, ptr %4, align 4
  %62 = sext i32 %61 to i64
  %63 = getelementptr inbounds [2 x ptr], ptr %60, i64 0, i64 %62
  store ptr null, ptr %63, align 8
  br label %64

64:                                               ; preds = %52
  %65 = load i32, ptr %4, align 4
  %66 = add nsw i32 %65, 1
  store i32 %66, ptr %4, align 4
  br label %49, !llvm.loop !8

67:                                               ; preds = %49
  ret void
}