; Function Attrs: nounwind uwtable
define hidden void @av1_free_mc_tmp_buf(ptr noundef captures(none) %0) local_unnamed_addr #0 {
  %2 = getelementptr inbounds nuw i8, ptr %0, i64 289660
  %3 = getelementptr inbounds nuw i8, ptr %0, i64 289640
  br label %4

4:                                                ; preds = %1, %4
  %5 = phi i1 [ true, %1 ], [ false, %4 ]
  %indvars.iv = phi i64 [ 0, %1 ], [ 1, %4 ]
  %6 = load i32, ptr %2, align 4
  %.not = icmp eq i32 %6, 0
  %7 = getelementptr inbounds nuw [2 x ptr], ptr %3, i64 0, i64 %indvars.iv
  %8 = load ptr, ptr %7, align 8
  %9 = ptrtoint ptr %8 to i64
  %10 = shl i64 %9, 1
  %11 = inttoptr i64 %10 to ptr
  %.sink = select i1 %.not, ptr %8, ptr %11
  tail call void @aom_free(ptr noundef %.sink) #16
  %12 = getelementptr inbounds nuw [2 x ptr], ptr %3, i64 0, i64 %indvars.iv
  store ptr null, ptr %12, align 8
  br i1 %5, label %4, label %.critedge, !llvm.loop !7

.critedge:                                        ; preds = %4
  %13 = getelementptr inbounds nuw i8, ptr %0, i64 289656
  store i32 0, ptr %13, align 8
  store i32 0, ptr %2, align 4
  %14 = getelementptr inbounds nuw i8, ptr %0, i64 289664
  %15 = load ptr, ptr %14, align 32
  tail call void @aom_free(ptr noundef %15) #16
  store ptr null, ptr %14, align 32
  %16 = getelementptr inbounds nuw i8, ptr %0, i64 289672
  %17 = load ptr, ptr %16, align 8
  tail call void @aom_free(ptr noundef %17) #16
  store ptr null, ptr %16, align 8
  %18 = getelementptr inbounds nuw i8, ptr %0, i64 289680
  %19 = load ptr, ptr %18, align 8
  tail call void @aom_free(ptr noundef %19) #16
  store ptr null, ptr %18, align 8
  ret void
}